; Function Attrs: mustprogress nofree norecurse nosync nounwind memory(read, argmem: readwrite, inaccessiblemem: none) uwtable
define dso_local void @_ZN20cmCTestSubmitHandler11SelectPartsERKSt3setIN7cmCTest4PartESt4lessIS2_ESaIS2_EE(ptr nocapture noundef nonnull writeonly align 8 dereferenceable(480) %0, ptr noundef nonnull readonly align 8 dereferenceable(48) %1) local_unnamed_addr #9 align 2 {
  %3 = getelementptr inbounds i8, ptr %1, i64 16
  %4 = getelementptr inbounds i8, ptr %1, i64 8
  %5 = getelementptr inbounds i8, ptr %0, i64 368
  br label %6

6:                                                ; preds = %2, %_ZNKSt3setIN7cmCTest4PartESt4lessIS1_ESaIS1_EE4findERKS1_.exit
  %indvars.iv = phi i64 [ 0, %2 ], [ %indvars.iv.next, %_ZNKSt3setIN7cmCTest4PartESt4lessIS1_ESaIS1_EE4findERKS1_.exit ]
  %7 = load ptr, ptr %3, align 8
  %.not10.i.i.i = icmp eq ptr %7, null
  br i1 %.not10.i.i.i, label %_ZNKSt3setIN7cmCTest4PartESt4lessIS1_ESaIS1_EE4findERKS1_.exit, label %.lr.ph.i.i.i

.lr.ph.i.i.i:                                     ; preds = %6, %.lr.ph.i.i.i
  %.012.i.i.i = phi ptr [ %.1.i.i.i, %.lr.ph.i.i.i ], [ %7, %6 ]
  %.0811.i.i.i = phi ptr [ %.19.i.i.i, %.lr.ph.i.i.i ], [ %4, %6 ]
  %8 = getelementptr inbounds i8, ptr %.012.i.i.i, i64 32
  %9 = load i32, ptr %8, align 4
  %10 = sext i32 %9 to i64
  %11 = icmp sgt i64 %indvars.iv, %10
  %.19.i.i.i = select i1 %11, ptr %.0811.i.i.i, ptr %.012.i.i.i
  %.1.in.v.i.i.i = select i1 %11, i64 24, i64 16
  %.1.in.i.i.i = getelementptr inbounds i8, ptr %.012.i.i.i, i64 %.1.in.v.i.i.i
  %.1.i.i.i = load ptr, ptr %.1.in.i.i.i, align 8
  %.not.i.i.i = icmp eq ptr %.1.i.i.i, null
  br i1 %.not.i.i.i, label %_ZNKSt8_Rb_treeIN7cmCTest4PartES1_St9_IdentityIS1_ESt4lessIS1_ESaIS1_EE14_M_lower_boundEPKSt13_Rb_tree_nodeIS1_EPKSt18_Rb_tree_node_baseRKS1_.exit.i.i, label %.lr.ph.i.i.i, !llvm.loop !55

_ZNKSt8_Rb_treeIN7cmCTest4PartES1_St9_IdentityIS1_ESt4lessIS1_ESaIS1_EE14_M_lower_boundEPKSt13_Rb_tree_nodeIS1_EPKSt18_Rb_tree_node_baseRKS1_.exit.i.i: ; preds = %.lr.ph.i.i.i
  %12 = icmp eq ptr %.19.i.i.i, %4
  br i1 %12, label %_ZNKSt3setIN7cmCTest4PartESt4lessIS1_ESaIS1_EE4findERKS1_.exit, label %13

13:                                               ; preds = %_ZNKSt8_Rb_treeIN7cmCTest4PartES1_St9_IdentityIS1_ESt4lessIS1_ESaIS1_EE14_M_lower_boundEPKSt13_Rb_tree_nodeIS1_EPKSt18_Rb_tree_node_baseRKS1_.exit.i.i
  %14 = getelementptr inbounds i8, ptr %.19.i.i.i, i64 32
  %15 = load i32, ptr %14, align 4
  %16 = sext i32 %15 to i64
  %17 = icmp slt i64 %indvars.iv, %16
  %spec.select.i.i = select i1 %17, ptr %4, ptr %.19.i.i.i
  br label %_ZNKSt3setIN7cmCTest4PartESt4lessIS1_ESaIS1_EE4findERKS1_.exit

_ZNKSt3setIN7cmCTest4PartESt4lessIS1_ESaIS1_EE4findERKS1_.exit: ; preds = %6, %_ZNKSt8_Rb_treeIN7cmCTest4PartES1_St9_IdentityIS1_ESt4lessIS1_ESaIS1_EE14_M_lower_boundEPKSt13_Rb_tree_nodeIS1_EPKSt18_Rb_tree_node_baseRKS1_.exit.i.i, %13
  %.sroa.0.0.i.i = phi ptr [ %4, %_ZNKSt8_Rb_treeIN7cmCTest4PartES1_St9_IdentityIS1_ESt4lessIS1_ESaIS1_EE14_M_lower_boundEPKSt13_Rb_tree_nodeIS1_EPKSt18_Rb_tree_node_baseRKS1_.exit.i.i ], [ %4, %6 ], [ %spec.select.i.i, %13 ]
  %18 = icmp ne ptr %.sroa.0.0.i.i, %4
  %19 = getelementptr inbounds [12 x i8], ptr %5, i64 0, i64 %indvars.iv
  %20 = zext i1 %18 to i8
  store i8 %20, ptr %19, align 1
  %indvars.iv.next = add nuw nsw i64 %indvars.iv, 1
  %.not = icmp eq i64 %indvars.iv.next, 12
  br i1 %.not, label %21, label %6, !llvm.loop !56

21:                                               ; preds = %_ZNKSt3setIN7cmCTest4PartESt4lessIS1_ESaIS1_EE4findERKS1_.exit
  ret void
}